; ModuleID = '19/2871.c'
source_filename = "19/2871.c"
target datalayout = "e-m:e-p270:32:32-p271:32:32-p272:64:64-i64:64-f80:128-n8:16:32:64-S128"
target triple = "x86_64-pc-linux-gnu"

%struct.WORD = type { [100 x i8], i32 }

@words = common dso_local global [100 x %struct.WORD] zeroinitializer, align 16
@.str = private unnamed_addr constant [3 x i8] c"%s\00", align 1
@.str.1 = private unnamed_addr constant [2 x i8] c" \00", align 1

; Function Attrs: noinline nounwind uwtable
define dso_local i32 @main() #0 {
  %1 = alloca i32, align 4
  %2 = alloca [100 x i8], align 16
  %3 = alloca [100 x i8], align 16
  %4 = alloca [100 x i8], align 16
  %5 = alloca i32, align 4
  %6 = alloca i32, align 4
  %7 = alloca i32, align 4
  %8 = alloca i32, align 4
  store i32 0, i32* %1, align 4
  %9 = getelementptr inbounds [100 x i8], [100 x i8]* %2, i64 0, i64 0
  %10 = call i32 (i8*, ...) bitcast (i32 (...)* @gets to i32 (i8*, ...)*)(i8* %9)
  %11 = getelementptr inbounds [100 x i8], [100 x i8]* %3, i64 0, i64 0
  %12 = call i32 (i8*, ...) bitcast (i32 (...)* @gets to i32 (i8*, ...)*)(i8* %11)
  %13 = getelementptr inbounds [100 x i8], [100 x i8]* %4, i64 0, i64 0
  %14 = call i32 (i8*, ...) bitcast (i32 (...)* @gets to i32 (i8*, ...)*)(i8* %13)
  store i32 0, i32* %5, align 4
  store i32 0, i32* %6, align 4
  store i32 0, i32* %7, align 4
  br label %15

15:                                               ; preds = %50, %0
  %16 = load i32, i32* %5, align 4
  %17 = sext i32 %16 to i64
  %18 = getelementptr inbounds [100 x i8], [100 x i8]* %2, i64 0, i64 0
  %19 = call i64 @strlen(i8* %18) #3
  %20 = icmp ult i64 %17, %19
  br i1 %20, label %21, label %53

21:                                               ; preds = %15
  %22 = load i32, i32* %5, align 4
  %23 = sext i32 %22 to i64
  %24 = getelementptr inbounds [100 x i8], [100 x i8]* %2, i64 0, i64 %23
  %25 = load i8, i8* %24, align 1
  %26 = sext i8 %25 to i32
  %27 = icmp ne i32 %26, 32
  br i1 %27, label %28, label %41

28:                                               ; preds = %21
  %29 = load i32, i32* %5, align 4
  %30 = sext i32 %29 to i64
  %31 = getelementptr inbounds [100 x i8], [100 x i8]* %2, i64 0, i64 %30
  %32 = load i8, i8* %31, align 1
  %33 = load i32, i32* %6, align 4
  %34 = sext i32 %33 to i64
  %35 = getelementptr inbounds [100 x %struct.WORD], [100 x %struct.WORD]* @words, i64 0, i64 %34
  %36 = getelementptr inbounds %struct.WORD, %struct.WORD* %35, i32 0, i32 0
  %37 = load i32, i32* %7, align 4
  %38 = add nsw i32 %37, 1
  store i32 %38, i32* %7, align 4
  %39 = sext i32 %37 to i64
  %40 = getelementptr inbounds [100 x i8], [100 x i8]* %36, i64 0, i64 %39
  store i8 %32, i8* %40, align 1
  br label %49

41:                                               ; preds = %21
  %42 = load i32, i32* %7, align 4
  %43 = sub nsw i32 %42, 1
  %44 = load i32, i32* %6, align 4
  %45 = add nsw i32 %44, 1
  store i32 %45, i32* %6, align 4
  %46 = sext i32 %44 to i64
  %47 = getelementptr inbounds [100 x %struct.WORD], [100 x %struct.WORD]* @words, i64 0, i64 %46
  %48 = getelementptr inbounds %struct.WORD, %struct.WORD* %47, i32 0, i32 1
  store i32 %43, i32* %48, align 4
  store i32 0, i32* %7, align 4
  br label %49

49:                                               ; preds = %41, %28
  br label %50

50:                                               ; preds = %49
  %51 = load i32, i32* %5, align 4
  %52 = add nsw i32 %51, 1
  store i32 %52, i32* %5, align 4
  br label %15

53:                                               ; preds = %15
  %54 = load i32, i32* %6, align 4
  %55 = add nsw i32 %54, 1
  store i32 %55, i32* %8, align 4
  store i32 0, i32* %5, align 4
  br label %56

56:                                               ; preds = %97, %53
  %57 = load i32, i32* %5, align 4
  %58 = load i32, i32* %8, align 4
  %59 = icmp slt i32 %57, %58
  br i1 %59, label %60, label %100

60:                                               ; preds = %56
  %61 = load i32, i32* %5, align 4
  %62 = sext i32 %61 to i64
  %63 = getelementptr inbounds [100 x %struct.WORD], [100 x %struct.WORD]* @words, i64 0, i64 %62
  %64 = getelementptr inbounds %struct.WORD, %struct.WORD* %63, i32 0, i32 0
  %65 = getelementptr inbounds [100 x i8], [100 x i8]* %64, i64 0, i64 0
  %66 = getelementptr inbounds [100 x i8], [100 x i8]* %3, i64 0, i64 0
  %67 = call i8* @strstr(i8* %65, i8* %66) #3
  %68 = icmp ne i8* %67, null
  br i1 %68, label %69, label %82

69:                                               ; preds = %60
  %70 = load i32, i32* %5, align 4
  %71 = sext i32 %70 to i64
  %72 = getelementptr inbounds [100 x %struct.WORD], [100 x %struct.WORD]* @words, i64 0, i64 %71
  %73 = getelementptr inbounds %struct.WORD, %struct.WORD* %72, i32 0, i32 0
  %74 = getelementptr inbounds [100 x i8], [100 x i8]* %73, i64 0, i64 0
  %75 = call i64 @strlen(i8* %74) #3
  %76 = getelementptr inbounds [100 x i8], [100 x i8]* %3, i64 0, i64 0
  %77 = call i64 @strlen(i8* %76) #3
  %78 = icmp eq i64 %75, %77
  br i1 %78, label %79, label %82

79:                                               ; preds = %69
  %80 = getelementptr inbounds [100 x i8], [100 x i8]* %4, i64 0, i64 0
  %81 = call i32 (i8*, ...) @printf(i8* getelementptr inbounds ([3 x i8], [3 x i8]* @.str, i64 0, i64 0), i8* %80)
  br label %89

82:                                               ; preds = %69, %60
  %83 = load i32, i32* %5, align 4
  %84 = sext i32 %83 to i64
  %85 = getelementptr inbounds [100 x %struct.WORD], [100 x %struct.WORD]* @words, i64 0, i64 %84
  %86 = getelementptr inbounds %struct.WORD, %struct.WORD* %85, i32 0, i32 0
  %87 = getelementptr inbounds [100 x i8], [100 x i8]* %86, i64 0, i64 0
  %88 = call i32 (i8*, ...) @printf(i8* getelementptr inbounds ([3 x i8], [3 x i8]* @.str, i64 0, i64 0), i8* %87)
  br label %89

89:                                               ; preds = %82, %79
  %90 = load i32, i32* %5, align 4
  %91 = load i32, i32* %8, align 4
  %92 = sub nsw i32 %91, 1
  %93 = icmp ne i32 %90, %92
  br i1 %93, label %94, label %96

94:                                               ; preds = %89
  %95 = call i32 (i8*, ...) @printf(i8* getelementptr inbounds ([2 x i8], [2 x i8]* @.str.1, i64 0, i64 0))
  br label %96

96:                                               ; preds = %94, %89
  br label %97

97:                                               ; preds = %96
  %98 = load i32, i32* %5, align 4
  %99 = add nsw i32 %98, 1
  store i32 %99, i32* %5, align 4
  br label %56

100:                                              ; preds = %56
  ret i32 0
}

declare dso_local i32 @gets(...) #1

; Function Attrs: nounwind readonly
declare dso_local i64 @strlen(i8*) #2

; Function Attrs: nounwind readonly
declare dso_local i8* @strstr(i8*, i8*) #2

declare dso_local i32 @printf(i8*, ...) #1


!llvm.module.flags = !{!0}
!llvm.ident = !{!1}

!0 = !{i32 1, !"wchar_size", i32 4}
!1 = !{!"clang version 10.0.0-4ubuntu1 "}
